target datalayout = "e-m:e-p270:32:32-p271:32:32-p272:64:64-i64:64-i128:128-f80:128-n8:16:32:64-S128"
target triple = "x86_64-pc-linux-gnu"

%struct.WalReceiverFunctionsType = type { ptr, ptr, ptr, ptr, ptr, ptr, ptr, ptr, ptr, ptr, ptr, ptr, ptr, ptr, ptr, ptr, ptr }
%struct.StringInfoData = type { ptr, i32, i32, i32 }

@WalReceiverFunctions = external global ptr, align 8
@LogRepWorkerWalRcvConn = external global ptr, align 8
@InterruptPending = external global i32, align 4
@MyLatch = external global ptr, align 8
@copybuf = internal global ptr null, align 8

; Function Attrs: nounwind uwtable
define internal i32 @copy_read_data(ptr noundef %0, i32 noundef %1, i32 noundef %2) #0 {
  %4 = alloca i32, align 4
  %5 = alloca ptr, align 8
  %6 = alloca i32, align 4
  %7 = alloca i32, align 4
  %8 = alloca i32, align 4
  %9 = alloca i32, align 4
  %10 = alloca i32, align 4
  %11 = alloca i32, align 4
  %12 = alloca ptr, align 8
  %13 = alloca i32, align 4
  store ptr %0, ptr %5, align 8
  store i32 %1, ptr %6, align 4
  store i32 %2, ptr %7, align 4
  call void @llvm.lifetime.start.p0(i64 4, ptr %8) #12
  store i32 0, ptr %8, align 4
  call void @llvm.lifetime.start.p0(i64 4, ptr %9) #12
  %14 = load ptr, ptr @copybuf, align 8
  %15 = getelementptr inbounds nuw %struct.StringInfoData, ptr %14, i32 0, i32 1
  %16 = load i32, ptr %15, align 8
  %17 = load ptr, ptr @copybuf, align 8
  %18 = getelementptr inbounds nuw %struct.StringInfoData, ptr %17, i32 0, i32 3
  %19 = load i32, ptr %18, align 8
  %20 = sub i32 %16, %19
  store i32 %20, ptr %9, align 4
  %21 = load i32, ptr %9, align 4
  %22 = icmp ne i32 %21, 0
  br i1 %22, label %23, label %52

23:                                               ; preds = %3
  %24 = load i32, ptr %9, align 4
  %25 = load i32, ptr %7, align 4
  %26 = icmp sgt i32 %24, %25
  br i1 %26, label %27, label %29

27:                                               ; preds = %23
  %28 = load i32, ptr %7, align 4
  store i32 %28, ptr %9, align 4
  br label %29

29:                                               ; preds = %27, %23
  %30 = load ptr, ptr %5, align 8
  %31 = load ptr, ptr @copybuf, align 8
  %32 = getelementptr inbounds nuw %struct.StringInfoData, ptr %31, i32 0, i32 0
  %33 = load ptr, ptr %32, align 8
  %34 = load ptr, ptr @copybuf, align 8
  %35 = getelementptr inbounds nuw %struct.StringInfoData, ptr %34, i32 0, i32 3
  %36 = load i32, ptr %35, align 8
  %37 = sext i32 %36 to i64
  %38 = getelementptr inbounds i8, ptr %33, i64 %37
  %39 = load i32, ptr %9, align 4
  %40 = sext i32 %39 to i64
  call void @llvm.memcpy.p0.p0.i64(ptr align 1 %30, ptr align 1 %38, i64 %40, i1 false)
  %41 = load i32, ptr %9, align 4
  %42 = load ptr, ptr @copybuf, align 8
  %43 = getelementptr inbounds nuw %struct.StringInfoData, ptr %42, i32 0, i32 3
  %44 = load i32, ptr %43, align 8
  %45 = add i32 %44, %41
  store i32 %45, ptr %43, align 8
  %46 = load i32, ptr %9, align 4
  %47 = load i32, ptr %7, align 4
  %48 = sub i32 %47, %46
  store i32 %48, ptr %7, align 4
  %49 = load i32, ptr %9, align 4
  %50 = load i32, ptr %8, align 4
  %51 = add i32 %50, %49
  store i32 %51, ptr %8, align 4
  br label %52

52:                                               ; preds = %29, %3
  br label %53

53:                                               ; preds = %154, %52
  %54 = load i32, ptr %7, align 4
  %55 = icmp sgt i32 %54, 0
  br i1 %55, label %56, label %60

56:                                               ; preds = %53
  %57 = load i32, ptr %8, align 4
  %58 = load i32, ptr %6, align 4
  %59 = icmp slt i32 %57, %58
  br label %60

60:                                               ; preds = %56, %53
  %61 = phi i1 [ false, %53 ], [ %59, %56 ]
  br i1 %61, label %62, label %155

62:                                               ; preds = %60
  call void @llvm.lifetime.start.p0(i64 4, ptr %10) #12
  store i32 -1, ptr %10, align 4
  call void @llvm.lifetime.start.p0(i64 4, ptr %11) #12
  call void @llvm.lifetime.start.p0(i64 8, ptr %12) #12
  store ptr null, ptr %12, align 8
  br label %63

63:                                               ; preds = %146, %62
  %64 = load ptr, ptr @WalReceiverFunctions, align 8
  %65 = getelementptr inbounds nuw %struct.WalReceiverFunctionsType, ptr %64, i32 0, i32 10
  %66 = load ptr, ptr %65, align 8
  %67 = load ptr, ptr @LogRepWorkerWalRcvConn, align 8
  %68 = call i32 %66(ptr noundef %67, ptr noundef %12, ptr noundef %10)
  store i32 %68, ptr %11, align 4
  br label %69

69:                                               ; preds = %63
  %70 = load volatile i32, ptr @InterruptPending, align 4
  %71 = icmp ne i32 %70, 0
  %72 = zext i1 %71 to i32
  %73 = sext i32 %72 to i64
  %74 = call i64 @llvm.expect.i64(i64 %73, i64 0)
  %75 = icmp ne i64 %74, 0
  br i1 %75, label %76, label %77

76:                                               ; preds = %69
  call void @ProcessInterrupts()
  br label %77

77:                                               ; preds = %76, %69
  br label %78

78:                                               ; preds = %77
  br label %79

79:                                               ; preds = %78
  %80 = load i32, ptr %11, align 4
  %81 = icmp eq i32 %80, 0
  br i1 %81, label %82, label %83

82:                                               ; preds = %79
  br label %147

83:                                               ; preds = %79
  %84 = load i32, ptr %11, align 4
  %85 = icmp slt i32 %84, 0
  br i1 %85, label %86, label %88

86:                                               ; preds = %83
  %87 = load i32, ptr %8, align 4
  store i32 %87, ptr %4, align 4
  store i32 1, ptr %13, align 4
  br label %152

88:                                               ; preds = %83
  %89 = load ptr, ptr %12, align 8
  %90 = load ptr, ptr @copybuf, align 8
  %91 = getelementptr inbounds nuw %struct.StringInfoData, ptr %90, i32 0, i32 0
  store ptr %89, ptr %91, align 8
  %92 = load i32, ptr %11, align 4
  %93 = load ptr, ptr @copybuf, align 8
  %94 = getelementptr inbounds nuw %struct.StringInfoData, ptr %93, i32 0, i32 1
  store i32 %92, ptr %94, align 8
  %95 = load ptr, ptr @copybuf, align 8
  %96 = getelementptr inbounds nuw %struct.StringInfoData, ptr %95, i32 0, i32 3
  store i32 0, ptr %96, align 8
  %97 = load ptr, ptr @copybuf, align 8
  %98 = getelementptr inbounds nuw %struct.StringInfoData, ptr %97, i32 0, i32 1
  %99 = load i32, ptr %98, align 8
  %100 = load ptr, ptr @copybuf, align 8
  %101 = getelementptr inbounds nuw %struct.StringInfoData, ptr %100, i32 0, i32 3
  %102 = load i32, ptr %101, align 8
  %103 = sub i32 %99, %102
  store i32 %103, ptr %9, align 4
  %104 = load i32, ptr %9, align 4
  %105 = load i32, ptr %7, align 4
  %106 = icmp sgt i32 %104, %105
  br i1 %106, label %107, label %109

107:                                              ; preds = %88
  %108 = load i32, ptr %7, align 4
  store i32 %108, ptr %9, align 4
  br label %109

109:                                              ; preds = %107, %88
  %110 = load ptr, ptr %5, align 8
  %111 = load ptr, ptr @copybuf, align 8
  %112 = getelementptr inbounds nuw %struct.StringInfoData, ptr %111, i32 0, i32 0
  %113 = load ptr, ptr %112, align 8
  %114 = load ptr, ptr @copybuf, align 8
  %115 = getelementptr inbounds nuw %struct.StringInfoData, ptr %114, i32 0, i32 3
  %116 = load i32, ptr %115, align 8
  %117 = sext i32 %116 to i64
  %118 = getelementptr inbounds i8, ptr %113, i64 %117
  %119 = load i32, ptr %9, align 4
  %120 = sext i32 %119 to i64
  call void @llvm.memcpy.p0.p0.i64(ptr align 1 %110, ptr align 1 %118, i64 %120, i1 false)
  %121 = load ptr, ptr %5, align 8
  %122 = load i32, ptr %9, align 4
  %123 = sext i32 %122 to i64
  %124 = getelementptr inbounds i8, ptr %121, i64 %123
  store ptr %124, ptr %5, align 8
  %125 = load i32, ptr %9, align 4
  %126 = load ptr, ptr @copybuf, align 8
  %127 = getelementptr inbounds nuw %struct.StringInfoData, ptr %126, i32 0, i32 3
  %128 = load i32, ptr %127, align 8
  %129 = add i32 %128, %125
  store i32 %129, ptr %127, align 8
  %130 = load i32, ptr %9, align 4
  %131 = load i32, ptr %7, align 4
  %132 = sub i32 %131, %130
  store i32 %132, ptr %7, align 4
  %133 = load i32, ptr %9, align 4
  %134 = load i32, ptr %8, align 4
  %135 = add i32 %134, %133
  store i32 %135, ptr %8, align 4
  br label %136

136:                                              ; preds = %109
  br label %137

137:                                              ; preds = %136
  %138 = load i32, ptr %7, align 4
  %139 = icmp sle i32 %138, 0
  br i1 %139, label %144, label %140

140:                                              ; preds = %137
  %141 = load i32, ptr %8, align 4
  %142 = load i32, ptr %6, align 4
  %143 = icmp sge i32 %141, %142
  br i1 %143, label %144, label %146

144:                                              ; preds = %140, %137
  %145 = load i32, ptr %8, align 4
  store i32 %145, ptr %4, align 4
  store i32 1, ptr %13, align 4
  br label %152

146:                                              ; preds = %140
  br label %63

147:                                              ; preds = %82
  %148 = load ptr, ptr @MyLatch, align 8
  %149 = load i32, ptr %10, align 4
  %150 = call i32 @WaitLatchOrSocket(ptr noundef %148, i32 noundef 43, i32 noundef %149, i64 noundef 1000, i32 noundef 134217759)
  %151 = load ptr, ptr @MyLatch, align 8
  call void @ResetLatch(ptr noundef %151)
  store i32 0, ptr %13, align 4
  br label %152

152:                                              ; preds = %147, %144, %86
  call void @llvm.lifetime.end.p0(i64 8, ptr %12) #12
  call void @llvm.lifetime.end.p0(i64 4, ptr %11) #12
  call void @llvm.lifetime.end.p0(i64 4, ptr %10) #12
  %153 = load i32, ptr %13, align 4
  switch i32 %153, label %157 [
    i32 0, label %154
  ]

154:                                              ; preds = %152
  br label %53, !llvm.loop !23

155:                                              ; preds = %60
  %156 = load i32, ptr %8, align 4
  store i32 %156, ptr %4, align 4
  store i32 1, ptr %13, align 4
  br label %157

157:                                              ; preds = %155, %152
  call void @llvm.lifetime.end.p0(i64 4, ptr %9) #12
  call void @llvm.lifetime.end.p0(i64 4, ptr %8) #12
  %158 = load i32, ptr %4, align 4
  ret i32 %158
}