; Function Attrs: nounwind uwtable
define internal i32 @copy_read_data(ptr noundef writeonly captures(none) %0, i32 noundef %1, i32 noundef %2) #1 {
  %4 = alloca i32, align 4
  %5 = alloca ptr, align 8
  %6 = load ptr, ptr @copybuf, align 8
  %7 = getelementptr inbounds nuw i8, ptr %6, i64 8
  %8 = load i32, ptr %7, align 8
  %9 = getelementptr inbounds nuw i8, ptr %6, i64 16
  %10 = load i32, ptr %9, align 8
  %.not = icmp eq i32 %8, %10
  br i1 %.not, label %20, label %11

11:                                               ; preds = %3
  %12 = sub i32 %8, %10
  %spec.select = tail call i32 @llvm.smin.i32(i32 %12, i32 %2)
  %13 = load ptr, ptr %6, align 8
  %14 = sext i32 %10 to i64
  %15 = getelementptr inbounds i8, ptr %13, i64 %14
  %16 = sext i32 %spec.select to i64
  tail call void @llvm.memcpy.p0.p0.i64(ptr align 1 %0, ptr align 1 %15, i64 %16, i1 false)
  %17 = load i32, ptr %9, align 8
  %18 = add i32 %17, %spec.select
  store i32 %18, ptr %9, align 8
  %19 = sub i32 %2, %spec.select
  br label %20

20:                                               ; preds = %11, %3
  %.042 = phi i32 [ %19, %11 ], [ %2, %3 ]
  %.039 = phi i32 [ %spec.select, %11 ], [ 0, %3 ]
  %21 = icmp sgt i32 %.042, 0
  %22 = icmp slt i32 %.039, %1
  %23 = and i1 %21, %22
  br i1 %23, label %.lr.ph, label %.loopexit

.lr.ph:                                           ; preds = %20, %48
  %.14069 = phi i32 [ %.241, %48 ], [ %.039, %20 ]
  %.14368 = phi i32 [ %.244, %48 ], [ %.042, %20 ]
  %.04667 = phi ptr [ %.147, %48 ], [ %0, %20 ]
  call void @llvm.lifetime.start.p0(i64 4, ptr nonnull %4) #12
  store i32 -1, ptr %4, align 4
  call void @llvm.lifetime.start.p0(i64 8, ptr nonnull %5) #12
  store ptr null, ptr %5, align 8
  br label %24

24:                                               ; preds = %36, %.lr.ph
  %.147 = phi ptr [ %.04667, %.lr.ph ], [ %42, %36 ]
  %.244 = phi i32 [ %.14368, %.lr.ph ], [ %45, %36 ]
  %.241 = phi i32 [ %.14069, %.lr.ph ], [ %46, %36 ]
  %25 = load ptr, ptr @WalReceiverFunctions, align 8
  %26 = getelementptr inbounds nuw i8, ptr %25, i64 80
  %27 = load ptr, ptr %26, align 8
  %28 = load ptr, ptr @LogRepWorkerWalRcvConn, align 8
  %29 = call i32 %27(ptr noundef %28, ptr noundef nonnull %5, ptr noundef nonnull %4) #12
  %30 = load volatile i32, ptr @InterruptPending, align 4
  %.not56 = icmp eq i32 %30, 0
  br i1 %.not56, label %32, label %31, !prof !8

31:                                               ; preds = %24
  call void @ProcessInterrupts() #12
  br label %32

32:                                               ; preds = %31, %24
  %33 = icmp eq i32 %29, 0
  br i1 %33, label %48, label %34

34:                                               ; preds = %32
  %35 = icmp slt i32 %29, 0
  br i1 %35, label %.thread, label %36

36:                                               ; preds = %34
  %37 = load ptr, ptr %5, align 8
  %38 = load ptr, ptr @copybuf, align 8
  store ptr %37, ptr %38, align 8
  %39 = getelementptr inbounds nuw i8, ptr %38, i64 8
  store i32 %29, ptr %39, align 8
  %40 = getelementptr inbounds nuw i8, ptr %38, i64 16
  store i32 0, ptr %40, align 8
  %spec.select58 = call i32 @llvm.smin.i32(i32 %29, i32 %.244)
  %41 = sext i32 %spec.select58 to i64
  call void @llvm.memcpy.p0.p0.i64(ptr align 1 %.147, ptr align 1 %37, i64 %41, i1 false)
  %42 = getelementptr inbounds i8, ptr %.147, i64 %41
  %43 = load i32, ptr %40, align 8
  %44 = add i32 %43, %spec.select58
  store i32 %44, ptr %40, align 8
  %45 = sub i32 %.244, %spec.select58
  %46 = add i32 %spec.select58, %.241
  %47 = icmp sgt i32 %45, 0
  %.not57 = icmp slt i32 %46, %1
  %or.cond = select i1 %47, i1 %.not57, i1 false
  br i1 %or.cond, label %24, label %.thread

.thread:                                          ; preds = %36, %34
  %.1.ph = phi i32 [ %46, %36 ], [ %.241, %34 ]
  call void @llvm.lifetime.end.p0(i64 8, ptr nonnull %5) #12
  call void @llvm.lifetime.end.p0(i64 4, ptr nonnull %4) #12
  br label %.loopexit

48:                                               ; preds = %32
  %49 = load ptr, ptr @MyLatch, align 8
  %50 = load i32, ptr %4, align 4
  %51 = call i32 @WaitLatchOrSocket(ptr noundef %49, i32 noundef 43, i32 noundef %50, i64 noundef 1000, i32 noundef 134217759) #12
  %52 = load ptr, ptr @MyLatch, align 8
  call void @ResetLatch(ptr noundef %52) #12
  call void @llvm.lifetime.end.p0(i64 8, ptr nonnull %5) #12
  call void @llvm.lifetime.end.p0(i64 4, ptr nonnull %4) #12
  %53 = icmp slt i32 %.241, %1
  br i1 %53, label %.lr.ph, label %.loopexit, !llvm.loop !21

.loopexit:                                        ; preds = %48, %20, %.thread
  %.2 = phi i32 [ %.1.ph, %.thread ], [ %.039, %20 ], [ %.241, %48 ]
  ret i32 %.2
}